target datalayout = "e-m:e-p270:32:32-p271:32:32-p272:64:64-i64:64-i128:128-f80:128-n8:16:32:64-S128"
target triple = "x86_64-pc-linux-gnu"

@.str.9 = private unnamed_addr constant [46 x i8] c"object-format capability requires an argument\00", align 1
@client_hash_algo = internal global i32 1, align 4
@.str.10 = private unnamed_addr constant [27 x i8] c"unknown object format '%s'\00", align 1

; Function Attrs: nounwind uwtable
define internal void @object_format_receive(ptr noundef %0, ptr noundef %1) #0 {
  %3 = alloca ptr, align 8
  %4 = alloca ptr, align 8
  store ptr %0, ptr %3, align 8, !tbaa !4
  store ptr %1, ptr %4, align 8, !tbaa !24
  %5 = load ptr, ptr %4, align 8, !tbaa !24
  %6 = icmp ne ptr %5, null
  br i1 %6, label %8, label %7

7:                                                ; preds = %2
  call void (ptr, ...) @die(ptr noundef @.str.9) #9
  unreachable

8:                                                ; preds = %2
  %9 = load ptr, ptr %4, align 8, !tbaa !24
  %10 = call i32 @hash_algo_by_name(ptr noundef %9)
  store i32 %10, ptr @client_hash_algo, align 4, !tbaa !25
  %11 = load i32, ptr @client_hash_algo, align 4, !tbaa !25
  %12 = icmp eq i32 %11, 0
  br i1 %12, label %13, label %15

13:                                               ; preds = %8
  %14 = load ptr, ptr %4, align 8, !tbaa !24
  call void (ptr, ...) @die(ptr noundef @.str.10, ptr noundef %14) #9
  unreachable

15:                                               ; preds = %8
  ret void
}