; Function Attrs: nounwind uwtable
define internal void @object_format_receive(ptr readnone captures(none) %0, ptr noundef %1) #0 {
  %.not = icmp eq ptr %1, null
  br i1 %.not, label %3, label %4

3:                                                ; preds = %2
  tail call void (ptr, ...) @die(ptr noundef nonnull @.str.9) #9
  unreachable

4:                                                ; preds = %2
  %5 = tail call i32 @hash_algo_by_name(ptr noundef nonnull %1) #7
  store i32 %5, ptr @client_hash_algo, align 4, !tbaa !29
  %6 = icmp eq i32 %5, 0
  br i1 %6, label %7, label %8

7:                                                ; preds = %4
  tail call void (ptr, ...) @die(ptr noundef nonnull @.str.10, ptr noundef nonnull %1) #9
  unreachable

8:                                                ; preds = %4
  ret void
}